target datalayout = "e-m:e-p270:32:32-p271:32:32-p272:64:64-i64:64-i128:128-f80:128-n8:16:32:64-S128"
target triple = "x86_64-pc-linux-gnu"

@__const.pdf_convert_utf.encodings = private unnamed_addr constant [2 x ptr] [ptr @.str, ptr null], align 16
@.str.1 = private unnamed_addr constant [6 x i8] c"UTF-8\00", align 1
@.str.2 = private unnamed_addr constant [65 x i8] c"pdf_convert_utf: could not initialize iconv for encoding %s: %s\0A\00", align 1

; Function Attrs: nounwind uwtable
define ptr @pdf_convert_utf(ptr noundef %0, i64 noundef %1) #0 {
  %3 = alloca ptr, align 8
  %4 = alloca ptr, align 8
  %5 = alloca i64, align 8
  %6 = alloca ptr, align 8
  %7 = alloca ptr, align 8
  %8 = alloca ptr, align 8
  %9 = alloca ptr, align 8
  %10 = alloca ptr, align 8
  %11 = alloca i64, align 8
  %12 = alloca i64, align 8
  %13 = alloca i64, align 8
  %14 = alloca [2 x ptr], align 16
  %15 = alloca ptr, align 8
  %16 = alloca [128 x i8], align 16
  store ptr %0, ptr %4, align 8
  store i64 %1, ptr %5, align 8
  store ptr null, ptr %6, align 8
  call void @llvm.memcpy.p0.p0.i64(ptr align 16 %14, ptr align 16 @__const.pdf_convert_utf.encodings, i64 16, i1 false)
  %17 = load i64, ptr %5, align 8
  %18 = add i64 %17, 1
  %19 = call ptr @cli_max_calloc(i64 noundef 1, i64 noundef %18)
  store ptr %19, ptr %7, align 8
  %20 = load ptr, ptr %7, align 8
  %21 = icmp ne ptr %20, null
  br i1 %21, label %23, label %22

22:                                               ; preds = %2
  store ptr null, ptr %3, align 8
  br label %86

23:                                               ; preds = %2
  %24 = load ptr, ptr %7, align 8
  %25 = load ptr, ptr %4, align 8
  %26 = load i64, ptr %5, align 8
  call void @llvm.memcpy.p0.p0.i64(ptr align 1 %24, ptr align 1 %25, i64 %26, i1 false)
  %27 = load ptr, ptr %7, align 8
  store ptr %27, ptr %9, align 8
  %28 = load i64, ptr %5, align 8
  %29 = add i64 %28, 1
  %30 = call ptr @cli_max_calloc(i64 noundef 1, i64 noundef %29)
  store ptr %30, ptr %8, align 8
  store ptr %30, ptr %10, align 8
  %31 = load ptr, ptr %8, align 8
  %32 = icmp ne ptr %31, null
  br i1 %32, label %35, label %33

33:                                               ; preds = %23
  %34 = load ptr, ptr %7, align 8
  call void @free(ptr noundef %34) #7
  store ptr null, ptr %3, align 8
  br label %86

35:                                               ; preds = %23
  store i64 0, ptr %13, align 8
  br label %36

36:                                               ; preds = %79, %35
  %37 = load i64, ptr %13, align 8
  %38 = getelementptr inbounds [2 x ptr], ptr %14, i64 0, i64 %37
  %39 = load ptr, ptr %38, align 8
  %40 = icmp ne ptr %39, null
  br i1 %40, label %41, label %82

41:                                               ; preds = %36
  %42 = load ptr, ptr %7, align 8
  store ptr %42, ptr %9, align 8
  %43 = load ptr, ptr %8, align 8
  store ptr %43, ptr %10, align 8
  %44 = load i64, ptr %5, align 8
  store i64 %44, ptr %12, align 8
  store i64 %44, ptr %11, align 8
  %45 = load i64, ptr %13, align 8
  %46 = getelementptr inbounds [2 x ptr], ptr %14, i64 0, i64 %45
  %47 = load ptr, ptr %46, align 8
  %48 = call ptr @iconv_open(ptr noundef @.str.1, ptr noundef %47)
  store ptr %48, ptr %15, align 8
  %49 = load ptr, ptr %15, align 8
  %50 = icmp eq ptr %49, inttoptr (i64 -1 to ptr)
  br i1 %50, label %51, label %60

51:                                               ; preds = %41
  %52 = call ptr @__errno_location() #8
  %53 = load i32, ptr %52, align 4
  %54 = getelementptr inbounds [128 x i8], ptr %16, i64 0, i64 0
  %55 = call ptr @cli_strerror(i32 noundef %53, ptr noundef %54, i64 noundef 128)
  %56 = load i64, ptr %13, align 8
  %57 = getelementptr inbounds [2 x ptr], ptr %14, i64 0, i64 %56
  %58 = load ptr, ptr %57, align 8
  %59 = getelementptr inbounds [128 x i8], ptr %16, i64 0, i64 0
  call void (ptr, ...) @cli_errmsg(ptr noundef @.str.2, ptr noundef %58, ptr noundef %59)
  br label %79

60:                                               ; preds = %41
  %61 = load ptr, ptr %15, align 8
  %62 = call i64 @iconv(ptr noundef %61, ptr noundef %9, ptr noundef %11, ptr noundef %10, ptr noundef %12)
  %63 = load i64, ptr %12, align 8
  %64 = load i64, ptr %5, align 8
  %65 = icmp eq i64 %63, %64
  br i1 %65, label %66, label %69

66:                                               ; preds = %60
  %67 = load ptr, ptr %15, align 8
  %68 = call i32 @iconv_close(ptr noundef %67)
  br label %79

69:                                               ; preds = %60
  %70 = load ptr, ptr %8, align 8
  %71 = load i64, ptr %5, align 8
  %72 = load i64, ptr %12, align 8
  %73 = sub i64 %71, %72
  %74 = getelementptr inbounds i8, ptr %70, i64 %73
  store i8 0, ptr %74, align 1
  %75 = load ptr, ptr %8, align 8
  %76 = call noalias ptr @strdup(ptr noundef %75) #7
  store ptr %76, ptr %6, align 8
  %77 = load ptr, ptr %15, align 8
  %78 = call i32 @iconv_close(ptr noundef %77)
  br label %82

79:                                               ; preds = %66, %51
  %80 = load i64, ptr %13, align 8
  %81 = add i64 %80, 1
  store i64 %81, ptr %13, align 8
  br label %36

82:                                               ; preds = %69, %36
  %83 = load ptr, ptr %7, align 8
  call void @free(ptr noundef %83) #7
  %84 = load ptr, ptr %8, align 8
  call void @free(ptr noundef %84) #7
  %85 = load ptr, ptr %6, align 8
  store ptr %85, ptr %3, align 8
  br label %86

86:                                               ; preds = %82, %33, %22
  %87 = load ptr, ptr %3, align 8
  ret ptr %87
}