; Function Attrs: nounwind uwtable
define noalias ptr @pdf_convert_utf(ptr nocapture noundef readonly %0, i64 noundef %1) local_unnamed_addr #0 {
  %3 = alloca ptr, align 8
  %4 = alloca ptr, align 8
  %5 = alloca i64, align 8
  %6 = alloca i64, align 8
  %7 = alloca [128 x i8], align 16
  %8 = add i64 %1, 1
  %9 = tail call ptr @cli_max_calloc(i64 noundef 1, i64 noundef %8) #14
  %.not = icmp eq ptr %9, null
  br i1 %.not, label %30, label %10

10:                                               ; preds = %2
  tail call void @llvm.memcpy.p0.p0.i64(ptr nonnull align 1 %9, ptr align 1 %0, i64 %1, i1 false)
  %11 = tail call ptr @cli_max_calloc(i64 noundef 1, i64 noundef %8) #14
  %.not34 = icmp eq ptr %11, null
  br i1 %.not34, label %14, label %.preheader.preheader

.preheader.preheader:                             ; preds = %10
  store ptr %9, ptr %3, align 8
  store ptr %11, ptr %4, align 8
  store i64 %1, ptr %6, align 8
  store i64 %1, ptr %5, align 8
  %12 = tail call ptr @iconv_open(ptr noundef nonnull @.str.1, ptr noundef nonnull @.str) #14
  %13 = icmp eq ptr %12, inttoptr (i64 -1 to ptr)
  br i1 %13, label %15, label %19

14:                                               ; preds = %10
  tail call void @free(ptr noundef nonnull %9) #14
  br label %30

15:                                               ; preds = %.preheader.preheader
  %16 = tail call ptr @__errno_location() #15
  %17 = load i32, ptr %16, align 4
  %18 = call ptr @cli_strerror(i32 noundef %17, ptr noundef nonnull %7, i64 noundef 128) #14
  call void (ptr, ...) @cli_errmsg(ptr noundef nonnull @.str.2, ptr noundef nonnull @.str, ptr noundef nonnull %7) #14
  br label %.loopexit

19:                                               ; preds = %.preheader.preheader
  %20 = call i64 @iconv(ptr noundef %12, ptr noundef nonnull %3, ptr noundef nonnull %5, ptr noundef nonnull %4, ptr noundef nonnull %6) #14
  %21 = load i64, ptr %6, align 8
  %22 = icmp eq i64 %21, %1
  br i1 %22, label %23, label %25

23:                                               ; preds = %19
  %24 = call i32 @iconv_close(ptr noundef %12) #14
  br label %.loopexit

25:                                               ; preds = %19
  %26 = sub i64 %1, %21
  %27 = getelementptr inbounds i8, ptr %11, i64 %26
  store i8 0, ptr %27, align 1
  %28 = call noalias ptr @strdup(ptr noundef nonnull %11) #14
  %29 = call i32 @iconv_close(ptr noundef %12) #14
  br label %.loopexit

.loopexit:                                        ; preds = %15, %23, %25
  %.028 = phi ptr [ %28, %25 ], [ null, %23 ], [ null, %15 ]
  call void @free(ptr noundef nonnull %9) #14
  call void @free(ptr noundef nonnull %11) #14
  br label %30

30:                                               ; preds = %2, %.loopexit, %14
  %.0 = phi ptr [ %.028, %.loopexit ], [ null, %14 ], [ null, %2 ]
  ret ptr %.0
}